(dp1
S'output'
p2
S"<type 'exceptions.TypeError'> an integer is required"
p3
sS'layer'
p4
S'/home/preethi/Downloads/web2py/applications/urbtran/controllers/default.py'
p5
sS'code'
p6
S'import json\nimport datetime\ndef index():\n    form=SQLFORM.factory(Field(\'date\',\'date\'),\n                    Field(\'place\',\'string\',requires =IS_IN_SET([\'Chennai\' , \'Tirupathi\',\'Nellore\' ,\'Gudur\' , \'Sri Kalahasti\'] ) ))\n    if form.process().accepted:\n        redirect(URL(\'schedule\', vars=dict( a=form.vars.date, b = form.vars.place )  ))\n        \n    return locals()\n\ndef graph():\n    destination = str(request.args[0])\n    rows = db(db.user_data.dest==destination).select(orderby=db.user_data.time_stamp)\n    data = list()\n    for i in range(24):\n        data.append([i,0])\n    for row in rows:\n        timestring = str(row.time_stamp)\n        print timestring\n        hour = int(timestring.split(\':\')[0])\n        print "hour = " , hour\n        data[hour][1] = data[hour][1] + 1\n    \n    return locals()\n    \ndef recieve():\n    import datetime\n    import time\n    time =  datetime.datetime.now().time()\n    latitude = request.vars.latitude\n    longitude = request.vars.longitude\n    db.user_data.insert(latitude=latitude,longitude=longitude,time_stamp=time)\n    return locals()\n\ndef user():\n    """\n    exposes:\n    http://..../[app]/default/user/login\n    http://..../[app]/default/user/logout\n    http://..../[app]/default/user/register\n    http://..../[app]/default/user/profile\n    http://..../[app]/default/user/retrieve_password\n    http://..../[app]/default/user/change_password\n    http://..../[app]/default/user/bulk_register\n    use @auth.requires_login()\n        @auth.requires_membership(\'group name\')\n        @auth.requires_permission(\'read\',\'table name\',record_id)\n    to decorate functions that need access control\n    also notice there is http://..../[app]/appadmin/manage/auth to allow administrator to manage users\n    """\n    return dict(form=auth())\n\n\n\n\ndef graphs_time():\n    print "**********"\n    data=[[0,0],[1,0],[2,0],[3,0],[4,0],[5,0],[6,0],[7,0],[8,0],[9,0],[10,0],[11,0],[12,0],]\n    \n    rows = db(db.schedule.id>0).select()\n    for row in rows:\n        data[row.slot][1] = data[row.slot][1] + row.people\n        \n        print data[row.slot]\n    for i in range(1,12):\n        a = data[i][1]\n        a = str(a).strip(\'L\')\n        data[i][1] = int(a)\n    return locals()\n\n\ndef graphs_place():\n    print "$$$$$$$$$$$$$$"\n    #dados_chart="[{name: \'Batata\', y: },{name: \'Tomate\', y: },{name: \'Mam\xc3\xa3o\', y: }]" #Change this dynamically\n    places = {}\n    rows = db(db.schedule.id>0).select()\n    for row in rows:\n        a = row.people\n        a = str(a).strip(\'L\')\n        row.people = int(a)\n        if places.has_key(row.destination):\n            places[row.destination] = places[row.destination] + row.people\n        else:\n            places.update({row.destination: row.people})\n    \n    temp = places.items()\n    print temp\n    dados_chart = ""\n    \n    # forming the dados chart in the required format\n    for i in range(0,len(temp)):\n        temp1 = {}\n        temp1.update({ \'name\' : temp[i][0]})\n        print "a"\n        temp1.update({ \'y\' : temp[i][1]})\n        temp1 = str(temp1)\n        print temp1\n        \n        temp2 = temp1.split(\',\')\n        a = temp2[0][2:3] + temp2[0][4:len(temp2[0])]\n        b = temp2[1][2:6] + temp2[1][7:len(temp2[1])-1]\n        \n        temp1 = "{" + b + "," + " " + a + "}"\n        \n        \n        dados_chart = dados_chart + temp1\n    dados_chart = "[" + dados_chart + "]"\n    print dados_chart\n\n        \n    \n    dados_map={}\n    dados_map["dados"]=dados_chart\n    chart="""\n    <script type="text/javascript">\n    Highcharts.setOptions({\n        lang:{\n        downloadJPEG: "Download em imagem JPG",\n        downloadPDF: "Download em documento PDF",\n        downloadPNG: "Download em imagem PNG",\n        downloadSVG: "Download em vetor SVG",\n        loading: "Lendo...",\n        noData: "Sem dados para mostrar",\n        printChart: "Imprimir Gr\xc3\xa1fico",\n        }\n        });\n\n            // Build the chart\n            $(\'#chart\').highcharts({\n                chart: {\n                    plotBackgroundColor: null,\n                    plotBorderWidth: null,\n                    plotShadow: false,\n                    type: \'pie\'\n                },\n                title: {\n                    text: \'Meu Gr\xc3\xa1fico\'\n        },\n        tooltip: {\n            pointFormat: \'{series.name}: <b>{point.percentage:.1f}%%</b>\'\n        },\n        plotOptions: {\n            pie: {\n                allowPointSelect: true,\n                cursor: \'pointer\',\n                dataLabels: {\n                    enabled: false\n                },\n                showInLegend: true\n            }\n        },\n        credits:{enabled:false},\n        series: [{\n            name: \'Vendar por porcentagem\',\n            colorByPoint: true,\n                data: %(dados)s\n                }]\n            });\n    </script>\n    """ %dados_map\n    return dict(chart=XML(chart))\n\n\n\n\ndef schedule():\n    vars = request.get_vars\n    place = vars.b\n    date = vars.a\n    rows = db( db.schedule.destination == place and db.schedule.date_ == date    ).select()\n    data =[[0,0],[1,0],[2,0],[3,0],[4,0],[5,0],[6,0],[7,0],[8,0],[9,0],[10,0],[11,0],[12,0],]\n    for row in rows:\n        a = row.slot\n        a = str(a).strip(\'L\')\n        row.slot = int(a)\n        \n        a = row.people\n        a = str(a).strip(\'L\')\n        row.people = int(a)\n        data[row.slot][1] = data[row.slot][1] + row.people\n    rows1 = db(db.schedule.destination ==place and db.schedule.date_ == date ).select(orderby = db.schedule.slot)\n    print data\n    return locals()\n\ndef algo():\n       \n    \n    name_ = request.args(0)\n    number_ = request.args(1)\n    email_ = request.args(2)\n\n    date1 = request.args(3)\n    slot_ = request.args(4)\n    destination_ = request.args(5)\n    \n    slot_strip = slot_.split(\'-\')[0]\n    \n    if(slot_strip) == \'8:AM\':\n        slot_ = 1\n    if(slot_strip) == \'9:AM\':\n        slot_ = 1\n    if(slot_strip) == \'10:AM\':\n        slot_ = 2\n    if(slot_strip) == \'11:AM\':\n        slot_ = 3\n    if(slot_strip) == \'12:PM\':\n        slot_ = 4\n    if(slot_strip) == \'1:PM\':\n        slot_ = 5\n    if(slot_strip) == \'2:PM\':\n        slot_ = 6\n    if(slot_strip) == \'3:PM\':\n        slot_ = 7\n    if(slot_strip) == \'4:PM\':\n        slot_ = 8\n    if(slot_strip) == \'5:PM\':\n        slot_ = 9\n    if(slot_strip) == \'6:PM\':\n        slot_ = 10\n    if(slot_strip) == \'7:PM\':\n        slot_ = 11\n    if(slot_strip) == \'8:PM\':\n        slot_ = 12\n    \n    date1 = date1.split(\'-\')\n    date1 = datetime.date(date1[0], date1[1],date1[2])\n   \n    db.details.insert(name = name_, email_id=email_ , destination = destination_, date_ = date1 , slot = slot_ )\n\n    rows1 = db(db.schedule.destination==destination_).select()\n    if(len(rows1)==0):\n        for i in range(1,12):\n            db.schedule.insert ( destination =destination_ ,status= \'pending\',date_=date1 , people=0 , slot = i  )\n    flag = 10\n    flag=0\n\n\n    rows = db(db.schedule.destination == destination_ and db.schedule.date_==date1 and db.schedule.slot==slot_ ).select()\n\n\n    if (flag==0):\n        for row in rows :\n        \n            number_ = int(number_)\n            if (row.status ==\'confirmed\' and row.people + number_ <=30) :\n                print "11111111111111"\n                db(db.schedule.id == row.id ).update(people = row.people+number_)\n                string = "your request has been processed successfully. you can board the bus in slot:" + str(slot_) + "to" + str(destination_)\n                flag=1\n                break\n\n\n\n\n    if flag==0:\n        for row in rows :\n            number_ = int(number_)\n\n            if (row.status == \'pending\' ):\n                print "222222222222222222"\n                if (row.people + number_ < 10):\n                    db(db.schedule.id == row.id).update(people = row.people+number_ )\n                    string = "your request has been processed successfully. you can board the bus in slot:" + str(slot_) + "to" + str(destination_) + "but the bus still needs " + str(10 - row.people + number_) + "people to get confirmed"\n                if (row.people + number_ >= 10):\n                    db(db.schedule.id == row.id).update(status =\'confirmed\' )\n                    db(db.schedule.id == row.id).update(people = row.people+number_ )\n                    string = "your request has been processed successfully. you can board the bus in slot:" + str(slot_) + "to" + str(destination_)\n                flag=1\n                break\n\n\n\n\n    if flag==0:\n        for row in rows :\n            number_ = int(number_)    \n            if(row.status ==\'confirmed\' and row.people + number_ >30):\n                print "333333333333333"\n                if (number_ < 10):\n                    db.schedule.insert ( destination =destination_ ,status= \'pending\',date_=date1 , people=number_ , slot =slot_  )\n                    string = "your request has been processed successfully. you can board the bus in slot:" + str(slot_) + "to" + str(destination_) + "but the bus still needs " + str(30 - row.people + number_) + "people to get confirmed"\n                else :\n                    db.schedule.insert ( destination =destination_ ,status= \'confirmed\',date_=date1 , people=number_ , slot =slot_  )\n                    string = "your request has been processed successfully. you can board the bus in slot:" + str(slot_) + "to" + str(destination_)\n                flag=1\n                break\n\n\n\n\n    return locals()\n\nresponse._vars=response._caller(algo)\n'
p7
sS'snapshot'
p8
(dp9
S'exception'
p10
(dp11
S'__hash__'
p12
S"<method-wrapper '__hash__' of exceptions.TypeError object>"
p13
sS'__setattr__'
p14
S"<method-wrapper '__setattr__' of exceptions.TypeError object>"
p15
sS'__reduce_ex__'
p16
S'<built-in method __reduce_ex__ of exceptions.TypeError object>'
p17
sS'__getslice__'
p18
S"<method-wrapper '__getslice__' of exceptions.TypeError object>"
p19
sS'__getitem__'
p20
S"<method-wrapper '__getitem__' of exceptions.TypeError object>"
p21
sS'__setstate__'
p22
S'<built-in method __setstate__ of exceptions.TypeError object>'
p23
sS'args'
p24
S"('an integer is required',)"
p25
sS'__reduce__'
p26
S'<built-in method __reduce__ of exceptions.TypeError object>'
p27
sS'__str__'
p28
S"<method-wrapper '__str__' of exceptions.TypeError object>"
p29
sS'__format__'
p30
S'<built-in method __format__ of exceptions.TypeError object>'
p31
sS'__getattribute__'
p32
S"<method-wrapper '__getattribute__' of exceptions.TypeError object>"
p33
sS'__class__'
p34
S"<type 'exceptions.TypeError'>"
p35
sS'__unicode__'
p36
S'<built-in method __unicode__ of exceptions.TypeError object>'
p37
sS'__delattr__'
p38
S"<method-wrapper '__delattr__' of exceptions.TypeError object>"
p39
sS'__subclasshook__'
p40
S'<built-in method __subclasshook__ of type object>'
p41
sS'__repr__'
p42
S"<method-wrapper '__repr__' of exceptions.TypeError object>"
p43
sS'__dict__'
p44
S'{}'
p45
sS'__sizeof__'
p46
S'<built-in method __sizeof__ of exceptions.TypeError object>'
p47
sS'__doc__'
p48
S"'Inappropriate argument type.'"
p49
sS'__init__'
p50
S"<method-wrapper '__init__' of exceptions.TypeError object>"
p51
sS'__new__'
p52
S'<built-in method __new__ of type object>'
p53
ssS'evalue'
p54
S'an integer is required'
p55
sS'request'
p56
cgluon.html
XML_unpickle
p57
(S'szM\x00\x00<div><table><tr><td style="font-weight:bold;vertical-align:top;">ajax</td><td style="vertical-align:top;">:</td><td><div>False</div></td></tr><tr><td style="font-weight:bold;vertical-align:top;">application</td><td style="vertical-align:top;">:</td><td><div>urbtran</div></td></tr><tr><td style="font-weight:bold;vertical-align:top;">args</td><td style="vertical-align:top;">:</td><td><div><table><tr><td><div>foggy</div></td></tr><tr><td><div>6</div></td></tr><tr><td><div>agh@gmail.com</div></td></tr><tr><td><div>2016-11-29</div></td></tr><tr><td><div>8_00AM-9_00AM</div></td></tr><tr><td><div>Chennail</div></td></tr></table></div></td></tr><tr><td style="font-weight:bold;vertical-align:top;">cid</td><td style="vertical-align:top;">:</td><td><div>None</div></td></tr><tr><td style="font-weight:bold;vertical-align:top;">client</td><td style="vertical-align:top;">:</td><td><div>192.168.1.220</div></td></tr><tr><td style="font-weight:bold;vertical-align:top;">controller</td><td style="vertical-align:top;">:</td><td><div>default</div></td></tr><tr><td style="font-weight:bold;vertical-align:top;">cookies</td><td style="vertical-align:top;">:</td><td><div><table></table></div></td></tr><tr><td style="font-weight:bold;vertical-align:top;">env</td><td style="vertical-align:top;">:</td><td><div><table><tr><td style="font-weight:bold;vertical-align:top;">HTTP_ACCEPT</td><td style="vertical-align:top;">:</td><td><div>text/html,application/xhtml+xml,application/xml;q=0.9,*/*;q=0.8</div></td></tr><tr><td style="font-weight:bold;vertical-align:top;">HTTP_ACCEPT_ENCODING</td><td style="vertical-align:top;">:</td><td><div>gzip, deflate</div></td></tr><tr><td style="font-weight:bold;vertical-align:top;">HTTP_ACCEPT_LANGUAGE</td><td style="vertical-align:top;">:</td><td><div>en-US,en;q=0.5</div></td></tr><tr><td style="font-weight:bold;vertical-align:top;">HTTP_CONNECTION</td><td style="vertical-align:top;">:</td><td><div>keep-alive</div></td></tr><tr><td style="font-weight:bold;vertical-align:top;">HTTP_HOST</td><td style="vertical-align:top;">:</td><td><div>192.168.1.189:8000</div></td></tr><tr><td style="font-weight:bold;vertical-align:top;">HTTP_UPGRADE_INSECURE_REQUESTS</td><td style="vertical-align:top;">:</td><td><div>1</div></td></tr><tr><td style="font-weight:bold;vertical-align:top;">HTTP_USER_AGENT</td><td style="vertical-align:top;">:</td><td><div>Mozilla/5.0 (X11; Ubuntu; Linux x86_64; rv:48.0) Gecko/20100101 Firefox/48.0</div></td></tr><tr><td style="font-weight:bold;vertical-align:top;">PATH_INFO</td><td style="vertical-align:top;">:</td><td><div>/urbtran/default/algo/foggy/6/agh@gmail.com/2016-11-29/8:00AM-9:00AM/Chennail</div></td></tr><tr><td style="font-weight:bold;vertical-align:top;">QUERY_STRING</td><td style="vertical-align:top;">:</td><td><div></div></td></tr><tr><td style="font-weight:bold;vertical-align:top;">REMOTE_ADDR</td><td style="vertical-align:top;">:</td><td><div>192.168.1.220</div></td></tr><tr><td style="font-weight:bold;vertical-align:top;">REMOTE_PORT</td><td style="vertical-align:top;">:</td><td><div>42876</div></td></tr><tr><td style="font-weight:bold;vertical-align:top;">REQUEST_METHOD</td><td style="vertical-align:top;">:</td><td><div>GET</div></td></tr><tr><td style="font-weight:bold;vertical-align:top;">SCRIPT_NAME</td><td style="vertical-align:top;">:</td><td><div></div></td></tr><tr><td style="font-weight:bold;vertical-align:top;">SERVER_NAME</td><td style="vertical-align:top;">:</td><td><div>preethi-SVE1512J6EB</div></td></tr><tr><td style="font-weight:bold;vertical-align:top;">SERVER_PORT</td><td style="vertical-align:top;">:</td><td><div>8000</div></td></tr><tr><td style="font-weight:bold;vertical-align:top;">SERVER_PROTOCOL</td><td style="vertical-align:top;">:</td><td><div>HTTP/1.1</div></td></tr><tr><td style="font-weight:bold;vertical-align:top;">SERVER_SOFTWARE</td><td style="vertical-align:top;">:</td><td><div>Rocket 1.2.6</div></td></tr><tr><td style="font-weight:bold;vertical-align:top;">app_folders</td><td style="vertical-align:top;">:</td><td><div>set([&#x27;/home/preethi/Downloads/web2py/applications/urban_traffic/&#x27;, &#x27;/home/preethi/Downloads/web2py/applications/urbtran/&#x27;, &#x27;/home/preethi/Downloads/web2py/applications/admin/&#x27;, &#x27;/home/preethi/Downloads/web2py/applications/sniffer/&#x27;, &#x27;/home/preethi/Downloads/web2py/applications/room_booking/&#x27;, &#x27;/home/preethi/Downloads/web2py/applications/urban_traffic_new/&#x27;, &#x27;/home/preethi/Downloads/web2py/applications/welcome/&#x27;])</div></td></tr><tr><td style="font-weight:bold;vertical-align:top;">applications_parent</td><td style="vertical-align:top;">:</td><td><div>/home/preethi/Downloads/web2py</div></td></tr><tr><td style="font-weight:bold;vertical-align:top;">cmd_args</td><td style="vertical-align:top;">:</td><td><div><table></table></div></td></tr><tr><td style="font-weight:bold;vertical-align:top;">cmd_options</td><td style="vertical-align:top;">:</td><td><div>&lt;Values at 0x7f56f846fcb0: {&#x27;verbose&#x27;: False, &#x27;ip&#x27;: &#x27;127.0.0.1&#x27;, &#x27;debuglevel&#x27;: 30, &#x27;with_scheduler&#x27;: False, &#x27;shutdown_timeout&#x27;: 5, &#x27;taskbar&#x27;: False, &#x27;with_coverage&#x27;: False, &#x27;pid_filename&#x27;: &#x27;httpserver.pid&#x27;, &#x27;maxthreads&#x27;: None, &#x27;softcron&#x27;: False, &#x27;server_name&#x27;: &#x27;preethi-SVE1512J6EB&#x27;, &#x27;bpython&#x27;: False, &#x27;nogui&#x27;: False, &#x27;port&#x27;: 8000, &#x27;print_errors&#x27;: False, &#x27;extcron&#x27;: False, &#x27;runcron&#x27;: False, &#x27;run_system_tests&#x27;: False, &#x27;test&#x27;: None, &#x27;folder&#x27;: &#x27;/home/preethi/Downloads/web2py&#x27;, &#x27;config&#x27;: &#x27;&#x27;, &#x27;minthreads&#x27;: None, &#x27;shell&#x27;: None, &#x27;run&#x27;: &#x27;&#x27;, &#x27;log_filename&#x27;: &#x27;httpserver.log&#x27;, &#x27;profiler_dir&#x27;: None, &#x27;args&#x27;: [&#x27;&#x27;], &#x27;socket_timeout&#x27;: 5, &#x27;ssl_ca_certificate&#x27;: None, &#x27;scheduler&#x27;: None, &#x27;interfaces&#x27;: None, &#x27;ssl_private_key&#x27;: &#x27;&#x27;, &#x27;gae&#x27;: None, &#x27;password&#x27;: &#x27;******&#x27;, &#x27;request_queue_size&#x27;: 5, &#x27;ssl_certificate&#x27;: &#x27;&#x27;, &#x27;cronjob&#x27;: False, &#x27;numthreads&#x27;: None, &#x27;quiet&#x27;: False, &#x27;import_models&#x27;: False, &#x27;timeout&#x27;: 10, &#x27;plain&#x27;: False, &#x27;nobanner&#x27;: False}&gt;</div></td></tr><tr><td style="font-weight:bold;vertical-align:top;">db_sessions</td><td style="vertical-align:top;">:</td><td><div>set([])</div></td></tr><tr><td style="font-weight:bold;vertical-align:top;">debugging</td><td style="vertical-align:top;">:</td><td><div>True</div></td></tr><tr><td style="font-weight:bold;vertical-align:top;">gluon_parent</td><td style="vertical-align:top;">:</td><td><div>/home/preethi/Downloads/web2py</div></td></tr><tr><td style="font-weight:bold;vertical-align:top;">http_accept</td><td style="vertical-align:top;">:</td><td><div>text/html,application/xhtml+xml,application/xml;q=0.9,*/*;q=0.8</div></td></tr><tr><td style="font-weight:bold;vertical-align:top;">http_accept_encoding</td><td style="vertical-align:top;">:</td><td><div>gzip, deflate</div></td></tr><tr><td style="font-weight:bold;vertical-align:top;">http_accept_language</td><td style="vertical-align:top;">:</td><td><div>en-US,en;q=0.5</div></td></tr><tr><td style="font-weight:bold;vertical-align:top;">http_connection</td><td style="vertical-align:top;">:</td><td><div>keep-alive</div></td></tr><tr><td style="font-weight:bold;vertical-align:top;">http_host</td><td style="vertical-align:top;">:</td><td><div>192.168.1.189:8000</div></td></tr><tr><td style="font-weight:bold;vertical-align:top;">http_upgrade_insecure_requests</td><td style="vertical-align:top;">:</td><td><div>1</div></td></tr><tr><td style="font-weight:bold;vertical-align:top;">http_user_agent</td><td style="vertical-align:top;">:</td><td><div>Mozilla/5.0 (X11; Ubuntu; Linux x86_64; rv:48.0) Gecko/20100101 Firefox/48.0</div></td></tr><tr><td style="font-weight:bold;vertical-align:top;">is_jython</td><td style="vertical-align:top;">:</td><td><div>False</div></td></tr><tr><td style="font-weight:bold;vertical-align:top;">is_pypy</td><td style="vertical-align:top;">:</td><td><div>False</div></td></tr><tr><td style="font-weight:bold;vertical-align:top;">is_source</td><td style="vertical-align:top;">:</td><td><div>True</div></td></tr><tr><td style="font-weight:bold;vertical-align:top;">local_hosts</td><td style="vertical-align:top;">:</td><td><div><table><tr><td><div>::1</div></td></tr><tr><td><div>127.0.1.1</div></td></tr><tr><td><div>::ffff:127.0.0.1</div></td></tr><tr><td><div>127.0.0.1</div></td></tr><tr><td><div>preethi-SVE1512J6EB</div></td></tr></table></div></td></tr><tr><td style="font-weight:bold;vertical-align:top;">path_info</td><td style="vertical-align:top;">:</td><td><div>/urbtran/default/algo/foggy/6/agh@gmail.com/2016-11-29/8:00AM-9:00AM/Chennail</div></td></tr><tr><td style="font-weight:bold;vertical-align:top;">query_string</td><td style="vertical-align:top;">:</td><td><div></div></td></tr><tr><td style="font-weight:bold;vertical-align:top;">remote_addr</td><td style="vertical-align:top;">:</td><td><div>192.168.1.220</div></td></tr><tr><td style="font-weight:bold;vertical-align:top;">remote_port</td><td style="vertical-align:top;">:</td><td><div>42876</div></td></tr><tr><td style="font-weight:bold;vertical-align:top;">request_method</td><td style="vertical-align:top;">:</td><td><div>GET</div></td></tr><tr><td style="font-weight:bold;vertical-align:top;">request_uri</td><td style="vertical-align:top;">:</td><td><div>/urbtran/default/algo/foggy/6/agh@gmail.com/2016-11-29/8:00AM-9:00AM/Chennail</div></td></tr><tr><td style="font-weight:bold;vertical-align:top;">script_name</td><td style="vertical-align:top;">:</td><td><div></div></td></tr><tr><td style="font-weight:bold;vertical-align:top;">server_name</td><td style="vertical-align:top;">:</td><td><div>preethi-SVE1512J6EB</div></td></tr><tr><td style="font-weight:bold;vertical-align:top;">server_port</td><td style="vertical-align:top;">:</td><td><div>8000</div></td></tr><tr><td style="font-weight:bold;vertical-align:top;">server_protocol</td><td style="vertical-align:top;">:</td><td><div>HTTP/1.1</div></td></tr><tr><td style="font-weight:bold;vertical-align:top;">server_software</td><td style="vertical-align:top;">:</td><td><div>Rocket 1.2.6</div></td></tr><tr><td style="font-weight:bold;vertical-align:top;">web2py_path</td><td style="vertical-align:top;">:</td><td><div>/home/preethi/Downloads/web2py</div></td></tr><tr><td style="font-weight:bold;vertical-align:top;">web2py_version</td><td style="vertical-align:top;">:</td><td><div>2.14.6-stable+timestamp.2016.05.10.00.21.47</div></td></tr><tr><td style="font-weight:bold;vertical-align:top;">wsgi.errors</td><td style="vertical-align:top;">:</td><td><div>&lt;open file &#x27;&lt;stderr&gt;&#x27;, mode &#x27;w&#x27; at 0x7f56ff8ec1e0&gt;</div></td></tr><tr><td style="font-weight:bold;vertical-align:top;">wsgi.file_wrapper</td><td style="vertical-align:top;">:</td><td><div>&lt;class wsgiref.util.FileWrapper at 0x7f56f850f8d8&gt;</div></td></tr><tr><td style="font-weight:bold;vertical-align:top;">wsgi.input</td><td style="vertical-align:top;">:</td><td><div>&lt;socket._fileobject object at 0x7f56dc7cad50&gt;</div></td></tr><tr><td style="font-weight:bold;vertical-align:top;">wsgi.multiprocess</td><td style="vertical-align:top;">:</td><td><div>False</div></td></tr><tr><td style="font-weight:bold;vertical-align:top;">wsgi.multithread</td><td style="vertical-align:top;">:</td><td><div>True</div></td></tr><tr><td style="font-weight:bold;vertical-align:top;">wsgi.run_once</td><td style="vertical-align:top;">:</td><td><div>False</div></td></tr><tr><td style="font-weight:bold;vertical-align:top;">wsgi.url_scheme</td><td style="vertical-align:top;">:</td><td><div>http</div></td></tr><tr><td style="font-weight:bold;vertical-align:top;">wsgi.version</td><td style="vertical-align:top;">:</td><td><div><table><tr><td><div>1</div></td></tr><tr><td><div>0</div></td></tr></table></div></td></tr><tr><td style="font-weight:bold;vertical-align:top;">wsgi_errors</td><td style="vertical-align:top;">:</td><td><div>&lt;open file &#x27;&lt;stderr&gt;&#x27;, mode &#x27;w&#x27; at 0x7f56ff8ec1e0&gt;</div></td></tr><tr><td style="font-weight:bold;vertical-align:top;">wsgi_file_wrapper</td><td style="vertical-align:top;">:</td><td><div>&lt;class wsgiref.util.FileWrapper at 0x7f56f850f8d8&gt;</div></td></tr><tr><td style="font-weight:bold;vertical-align:top;">wsgi_input</td><td style="vertical-align:top;">:</td><td><div>&lt;socket._fileobject object at 0x7f56dc7cad50&gt;</div></td></tr><tr><td style="font-weight:bold;vertical-align:top;">wsgi_multiprocess</td><td style="vertical-align:top;">:</td><td><div>False</div></td></tr><tr><td style="font-weight:bold;vertical-align:top;">wsgi_multithread</td><td style="vertical-align:top;">:</td><td><div>True</div></td></tr><tr><td style="font-weight:bold;vertical-align:top;">wsgi_run_once</td><td style="vertical-align:top;">:</td><td><div>False</div></td></tr><tr><td style="font-weight:bold;vertical-align:top;">wsgi_url_scheme</td><td style="vertical-align:top;">:</td><td><div>http</div></td></tr><tr><td style="font-weight:bold;vertical-align:top;">wsgi_version</td><td style="vertical-align:top;">:</td><td><div><table><tr><td><div>1</div></td></tr><tr><td><div>0</div></td></tr></table></div></td></tr></table></div></td></tr><tr><td style="font-weight:bold;vertical-align:top;">extension</td><td style="vertical-align:top;">:</td><td><div>html</div></td></tr><tr><td style="font-weight:bold;vertical-align:top;">folder</td><td style="vertical-align:top;">:</td><td><div>/home/preethi/Downloads/web2py/applications/urbtran/</div></td></tr><tr><td style="font-weight:bold;vertical-align:top;">function</td><td style="vertical-align:top;">:</td><td><div>algo</div></td></tr><tr><td style="font-weight:bold;vertical-align:top;">global_settings</td><td style="vertical-align:top;">:</td><td><div><table><tr><td style="font-weight:bold;vertical-align:top;">app_folders</td><td style="vertical-align:top;">:</td><td><div>set([&#x27;/home/preethi/Downloads/web2py/applications/urban_traffic/&#x27;, &#x27;/home/preethi/Downloads/web2py/applications/urbtran/&#x27;, &#x27;/home/preethi/Downloads/web2py/applications/admin/&#x27;, &#x27;/home/preethi/Downloads/web2py/applications/sniffer/&#x27;, &#x27;/home/preethi/Downloads/web2py/applications/room_booking/&#x27;, &#x27;/home/preethi/Downloads/web2py/applications/urban_traffic_new/&#x27;, &#x27;/home/preethi/Downloads/web2py/applications/welcome/&#x27;])</div></td></tr><tr><td style="font-weight:bold;vertical-align:top;">applications_parent</td><td style="vertical-align:top;">:</td><td><div>/home/preethi/Downloads/web2py</div></td></tr><tr><td style="font-weight:bold;vertical-align:top;">cmd_args</td><td style="vertical-align:top;">:</td><td><div><table></table></div></td></tr><tr><td style="font-weight:bold;vertical-align:top;">cmd_options</td><td style="vertical-align:top;">:</td><td><div>&lt;Values at 0x7f56f846fcb0: {&#x27;verbose&#x27;: False, &#x27;ip&#x27;: &#x27;127.0.0.1&#x27;, &#x27;debuglevel&#x27;: 30, &#x27;with_scheduler&#x27;: False, &#x27;shutdown_timeout&#x27;: 5, &#x27;taskbar&#x27;: False, &#x27;with_coverage&#x27;: False, &#x27;pid_filename&#x27;: &#x27;httpserver.pid&#x27;, &#x27;maxthreads&#x27;: None, &#x27;softcron&#x27;: False, &#x27;server_name&#x27;: &#x27;preethi-SVE1512J6EB&#x27;, &#x27;bpython&#x27;: False, &#x27;nogui&#x27;: False, &#x27;port&#x27;: 8000, &#x27;print_errors&#x27;: False, &#x27;extcron&#x27;: False, &#x27;runcron&#x27;: False, &#x27;run_system_tests&#x27;: False, &#x27;test&#x27;: None, &#x27;folder&#x27;: &#x27;/home/preethi/Downloads/web2py&#x27;, &#x27;config&#x27;: &#x27;&#x27;, &#x27;minthreads&#x27;: None, &#x27;shell&#x27;: None, &#x27;run&#x27;: &#x27;&#x27;, &#x27;log_filename&#x27;: &#x27;httpserver.log&#x27;, &#x27;profiler_dir&#x27;: None, &#x27;args&#x27;: [&#x27;&#x27;], &#x27;socket_timeout&#x27;: 5, &#x27;ssl_ca_certificate&#x27;: None, &#x27;scheduler&#x27;: None, &#x27;interfaces&#x27;: None, &#x27;ssl_private_key&#x27;: &#x27;&#x27;, &#x27;gae&#x27;: None, &#x27;password&#x27;: &#x27;******&#x27;, &#x27;request_queue_size&#x27;: 5, &#x27;ssl_certificate&#x27;: &#x27;&#x27;, &#x27;cronjob&#x27;: False, &#x27;numthreads&#x27;: None, &#x27;quiet&#x27;: False, &#x27;import_models&#x27;: False, &#x27;timeout&#x27;: 10, &#x27;plain&#x27;: False, &#x27;nobanner&#x27;: False}&gt;</div></td></tr><tr><td style="font-weight:bold;vertical-align:top;">db_sessions</td><td style="vertical-align:top;">:</td><td><div>set([])</div></td></tr><tr><td style="font-weight:bold;vertical-align:top;">debugging</td><td style="vertical-align:top;">:</td><td><div>True</div></td></tr><tr><td style="font-weight:bold;vertical-align:top;">gluon_parent</td><td style="vertical-align:top;">:</td><td><div>/home/preethi/Downloads/web2py</div></td></tr><tr><td style="font-weight:bold;vertical-align:top;">is_jython</td><td style="vertical-align:top;">:</td><td><div>False</div></td></tr><tr><td style="font-weight:bold;vertical-align:top;">is_pypy</td><td style="vertical-align:top;">:</td><td><div>False</div></td></tr><tr><td style="font-weight:bold;vertical-align:top;">is_source</td><td style="vertical-align:top;">:</td><td><div>True</div></td></tr><tr><td style="font-weight:bold;vertical-align:top;">local_hosts</td><td style="vertical-align:top;">:</td><td><div><table><tr><td><div>::1</div></td></tr><tr><td><div>127.0.1.1</div></td></tr><tr><td><div>::ffff:127.0.0.1</div></td></tr><tr><td><div>127.0.0.1</div></td></tr><tr><td><div>preethi-SVE1512J6EB</div></td></tr></table></div></td></tr><tr><td style="font-weight:bold;vertical-align:top;">web2py_version</td><td style="vertical-align:top;">:</td><td><div>2.14.6-stable+timestamp.2016.05.10.00.21.47</div></td></tr></table></div></td></tr><tr><td style="font-weight:bold;vertical-align:top;">is_https</td><td style="vertical-align:top;">:</td><td><div>False</div></td></tr><tr><td style="font-weight:bold;vertical-align:top;">is_local</td><td style="vertical-align:top;">:</td><td><div>False</div></td></tr><tr><td style="font-weight:bold;vertical-align:top;">is_restful</td><td style="vertical-align:top;">:</td><td><div>False</div></td></tr><tr><td style="font-weight:bold;vertical-align:top;">is_scheduler</td><td style="vertical-align:top;">:</td><td><div>False</div></td></tr><tr><td style="font-weight:bold;vertical-align:top;">is_shell</td><td style="vertical-align:top;">:</td><td><div>False</div></td></tr><tr><td style="font-weight:bold;vertical-align:top;">now</td><td style="vertical-align:top;">:</td><td><div>datetime.datetime(2016, 11, 29, 14, 7, 27, 482192)</div></td></tr><tr><td style="font-weight:bold;vertical-align:top;">raw_args</td><td style="vertical-align:top;">:</td><td><div>foggy/6/agh@gmail.com/2016-11-29/8:00AM-9:00AM/Chennail</div></td></tr><tr><td style="font-weight:bold;vertical-align:top;">raw_extension</td><td style="vertical-align:top;">:</td><td><div>None</div></td></tr><tr><td style="font-weight:bold;vertical-align:top;">url</td><td style="vertical-align:top;">:</td><td><div>/urbtran/default/algo/foggy/6/agh@gmail.com/2016-11-29/8:00AM-9:00AM/Chennail</div></td></tr><tr><td style="font-weight:bold;vertical-align:top;">utcnow</td><td style="vertical-align:top;">:</td><td><div>datetime.datetime(2016, 11, 29, 8, 37, 27, 482213)</div></td></tr><tr><td style="font-weight:bold;vertical-align:top;">wsgi</td><td style="vertical-align:top;">:</td><td><div>&lt;gluon.main.LazyWSGI object at 0x7f56bb207b90&gt;</div></td></tr></table></div>'
tRp58
sS'frames'
p59
(lp60
(dp61
S'file'
p62
S'/home/preethi/Downloads/web2py/gluon/restricted.py'
p63
sS'dump'
p64
(dp65
S'environment'
p66
S"{'A': <class 'gluon.html.A'>, 'ANY_OF': <class 'gluon.validators.ANY_OF'>, 'ASSIGNJS': <function ASSIGNJS>, 'AppConfig': <function AppConfig>, 'Auth': <class 'gluon.tools.Auth'>, 'B': <class 'gluon.html.B'>, 'BEAUTIFY': <class 'gluon.html.BEAUTIFY'>, 'BODY': <class 'gluon.html.BODY'>, 'BR': <class 'gluon.html.BR'>, 'BUTTON': <class 'gluon.html.BUTTON'>, ...}"
p67
sS'ccode'
p68
S'<code object <module> at 0x7f56f41d7230, file "/...ications/urbtran/controllers/default.py", line 1>'
p69
ssS'lnum'
p70
I227
sS'lines'
p71
(dp72
I224
S'            ccode = code'
p73
sI225
S'        else:'
p74
sI226
S'            ccode = compile2(code, layer)'
p75
sI227
S'        exec ccode in environment'
p76
sI228
S'    except HTTP:'
p77
sI229
S'        raise'
p78
sI230
S'    except RestrictedError:'
p79
sI231
S'        # do not encapsulate (obfuscate) the original RestrictedError'
p80
sI222
S'    try:'
p81
sI223
S'        if isinstance(code, types.CodeType):'
p82
ssS'call'
p83
S"(code='import json\\nimport datetime\\ndef index():\\n    for... locals()\\n\\nresponse._vars=response._caller(algo)\\n', environment={'A': <class 'gluon.html.A'>, 'ANY_OF': <class 'gluon.validators.ANY_OF'>, 'ASSIGNJS': <function ASSIGNJS>, 'AppConfig': <function AppConfig>, 'Auth': <class 'gluon.tools.Auth'>, 'B': <class 'gluon.html.B'>, 'BEAUTIFY': <class 'gluon.html.BEAUTIFY'>, 'BODY': <class 'gluon.html.BODY'>, 'BR': <class 'gluon.html.BR'>, 'BUTTON': <class 'gluon.html.BUTTON'>, ...}, layer='/home/preethi/Downloads/web2py/applications/urbtran/controllers/default.py')"
p84
sS'func'
p85
S'restricted'
p86
sa(dp87
g62
S'/home/preethi/Downloads/web2py/applications/urbtran/controllers/default.py'
p88
sg64
(dp89
sg70
I293
sg71
(dp90
I288
S''
sI289
S''
sI290
S''
sI291
S'    return locals()'
p91
sI282
S'                else :'
p92
sI283
S"                    db.schedule.insert ( destination =destination_ ,status= 'confirmed',date_=date1 , people=number_ , slot =slot_  )"
p93
sI284
S'                    string = "your request has been processed successfully. you can board the bus in slot:" + str(slot_) + "to" + str(destination_)'
p94
sI285
S'                flag=1'
p95
sI286
S'                break'
p96
sI287
S''
ssg83
S'()'
p97
sg85
S'<module>'
p98
sa(dp99
g62
S'/home/preethi/Downloads/web2py/gluon/globals.py'
p100
sg64
(dp101
S'self'
p102
S'undefined'
p103
sS'f'
S'<function algo>'
p104
ssg70
I417
sg71
(dp105
I416
S'        self._vars = None'
p106
sI417
S'        self._caller = lambda f: f()'
p107
sI418
S'        self._view_environment = None'
p108
sI419
S'        self._custom_commit = None'
p109
sI420
S'        self._custom_rollback = None'
p110
sI421
S"        self.generic_patterns = ['*']"
p111
sI412
S"        self.flash = ''            # used by the default view layout"
p112
sI413
S'        self.meta = Storage()      # used by web2py_ajax.html'
p113
sI414
S'        self.menu = []             # used by the default view layout'
p114
sI415
S'        self.files = []            # used by web2py_ajax.html'
p115
ssg83
S'(f=<function algo>)'
p116
sg85
S'<lambda>'
p117
sa(dp118
g62
S'/home/preethi/Downloads/web2py/applications/urbtran/controllers/default.py'
p119
sg64
(dp120
S'date1'
p121
S"['2016', '11', '29']"
p122
sS'datetime.date'
p123
S"<type 'datetime.date'>"
p124
sS'global datetime'
p125
S"<module 'datetime' from '/usr/lib/python2.7/lib-dynload/datetime.x86_64-linux-gnu.so'>"
p126
ssg70
I226
sg71
(dp127
I224
S''
sI225
S"    date1 = date1.split('-')"
p128
sI226
S'    date1 = datetime.date(date1[0], date1[1],date1[2])'
p129
sI227
S''
sI228
S'    db.details.insert(name = name_, email_id=email_ , destination = destination_, date_ = date1 , slot = slot_ )'
p130
sI229
S''
sI230
S'    rows1 = db(db.schedule.destination==destination_).select()'
p131
sI221
S'        slot_ = 11'
p132
sI222
S"    if(slot_strip) == '8:PM':"
p133
sI223
S'        slot_ = 12'
p134
ssg83
S'()'
p135
sg85
S'algo'
p136
sasS'pyver'
p137
S'Python 2.7.6: /usr/bin/python (prefix: /usr)'
p138
sS'session'
p139
g57
(S's\x1a\x00\x00\x00<div><table></table></div>'
tRp140
sS'etype'
p141
S"<type 'exceptions.TypeError'>"
p142
sS'date'
p143
S'Tue Nov 29 14:07:27 2016'
p144
sS'response'
p145
g57
(S's\xc1\x1d\x00\x00<div><table><tr><td style="font-weight:bold;vertical-align:top;">body</td><td style="vertical-align:top;">:</td><td><div>&lt;cStringIO.StringO object at 0x7f56fd59f3e8&gt;</div></td></tr><tr><td style="font-weight:bold;vertical-align:top;">cookies</td><td style="vertical-align:top;">:</td><td><div><table><tr><td style="font-weight:bold;vertical-align:top;">session_id_urbtran</td><td style="vertical-align:top;">:</td><td><div>192.168.1.220-4cea3299-61fe-4a67-a038-21ff2a5ff1b8<table><tr><td style="font-weight:bold;vertical-align:top;">comment</td><td style="vertical-align:top;">:</td><td><div></div></td></tr><tr><td style="font-weight:bold;vertical-align:top;">domain</td><td style="vertical-align:top;">:</td><td><div></div></td></tr><tr><td style="font-weight:bold;vertical-align:top;">expires</td><td style="vertical-align:top;">:</td><td><div></div></td></tr><tr><td style="font-weight:bold;vertical-align:top;">httponly</td><td style="vertical-align:top;">:</td><td><div></div></td></tr><tr><td style="font-weight:bold;vertical-align:top;">max-age</td><td style="vertical-align:top;">:</td><td><div></div></td></tr><tr><td style="font-weight:bold;vertical-align:top;">path</td><td style="vertical-align:top;">:</td><td><div>/</div></td></tr><tr><td style="font-weight:bold;vertical-align:top;">secure</td><td style="vertical-align:top;">:</td><td><div></div></td></tr><tr><td style="font-weight:bold;vertical-align:top;">version</td><td style="vertical-align:top;">:</td><td><div></div></td></tr></table></div></td></tr></table></div></td></tr><tr><td style="font-weight:bold;vertical-align:top;">delimiters</td><td style="vertical-align:top;">:</td><td><div><table><tr><td><div>{{</div></td></tr><tr><td><div>}}</div></td></tr></table></div></td></tr><tr><td style="font-weight:bold;vertical-align:top;">files</td><td style="vertical-align:top;">:</td><td><div><table></table></div></td></tr><tr><td style="font-weight:bold;vertical-align:top;">flash</td><td style="vertical-align:top;">:</td><td><div></div></td></tr><tr><td style="font-weight:bold;vertical-align:top;">form_label_separator</td><td style="vertical-align:top;">:</td><td><div></div></td></tr><tr><td style="font-weight:bold;vertical-align:top;">formstyle</td><td style="vertical-align:top;">:</td><td><div>bootstrap3_inline</div></td></tr><tr><td style="font-weight:bold;vertical-align:top;">generic_patterns</td><td style="vertical-align:top;">:</td><td><div><table></table></div></td></tr><tr><td style="font-weight:bold;vertical-align:top;">google_analytics_id</td><td style="vertical-align:top;">:</td><td><div>None</div></td></tr><tr><td style="font-weight:bold;vertical-align:top;">headers</td><td style="vertical-align:top;">:</td><td><div><table><tr><td style="font-weight:bold;vertical-align:top;">X-Powered-By</td><td style="vertical-align:top;">:</td><td><div>web2py</div></td></tr></table></div></td></tr><tr><td style="font-weight:bold;vertical-align:top;">logo</td><td style="vertical-align:top;">:</td><td><div><a class="navbar-brand" id="web2py-logo"><b>urbtran</b></a></div></td></tr><tr><td style="font-weight:bold;vertical-align:top;">menu</td><td style="vertical-align:top;">:</td><td><div><table><tr><td><div><table><tr><td><div>Home</div></td></tr><tr><td><div>False</div></td></tr><tr><td><div>/urbtran/default/index</div></td></tr><tr><td><div><table></table></div></td></tr></table></div></td></tr><tr><td><div><table><tr><td><div>time-people</div></td></tr><tr><td><div>False</div></td></tr><tr><td><div>/urbtran/default/graphs_time</div></td></tr><tr><td><div><table></table></div></td></tr></table></div></td></tr><tr><td><div><table><tr><td><div>place-people</div></td></tr><tr><td><div>False</div></td></tr><tr><td><div>/urbtran/default/graphs_place</div></td></tr><tr><td><div><table></table></div></td></tr></table></div></td></tr></table></div></td></tr><tr><td style="font-weight:bold;vertical-align:top;">meta</td><td style="vertical-align:top;">:</td><td><div><table><tr><td style="font-weight:bold;vertical-align:top;">author</td><td style="vertical-align:top;">:</td><td><div>Your Name &lt;you@example.com&gt;</div></td></tr><tr><td style="font-weight:bold;vertical-align:top;">description</td><td style="vertical-align:top;">:</td><td><div>a cool new app</div></td></tr><tr><td style="font-weight:bold;vertical-align:top;">generator</td><td style="vertical-align:top;">:</td><td><div>Web2py Web Framework</div></td></tr><tr><td style="font-weight:bold;vertical-align:top;">keywords</td><td style="vertical-align:top;">:</td><td><div><table><tr><td><div>web2py</div></td></tr><tr><td><div>python</div></td></tr><tr><td><div>framework</div></td></tr></table></div></td></tr></table></div></td></tr><tr><td style="font-weight:bold;vertical-align:top;">models_to_run</td><td style="vertical-align:top;">:</td><td><div><table><tr><td><div>^\\w+\\.py$</div></td></tr><tr><td><div>^default/\\w+\\.py$</div></td></tr><tr><td><div>^default/algo/\\w+\\.py$</div></td></tr></table></div></td></tr><tr><td style="font-weight:bold;vertical-align:top;">postprocessing</td><td style="vertical-align:top;">:</td><td><div><table></table></div></td></tr><tr><td style="font-weight:bold;vertical-align:top;">session_client</td><td style="vertical-align:top;">:</td><td><div>192.168.1.220</div></td></tr><tr><td style="font-weight:bold;vertical-align:top;">session_cookie_compression_level</td><td style="vertical-align:top;">:</td><td><div>None</div></td></tr><tr><td style="font-weight:bold;vertical-align:top;">session_cookie_expires</td><td style="vertical-align:top;">:</td><td><div>None</div></td></tr><tr><td style="font-weight:bold;vertical-align:top;">session_data_name</td><td style="vertical-align:top;">:</td><td><div>session_data_urbtran</div></td></tr><tr><td style="font-weight:bold;vertical-align:top;">session_file</td><td style="vertical-align:top;">:</td><td><div>None</div></td></tr><tr><td style="font-weight:bold;vertical-align:top;">session_filename</td><td style="vertical-align:top;">:</td><td><div>/home/preethi/Downloads/web2py/applications/urbtran/sessions/192.168.1.220-4cea3299-61fe-4a67-a038-21ff2a5ff1b8</div></td></tr><tr><td style="font-weight:bold;vertical-align:top;">session_hash</td><td style="vertical-align:top;">:</td><td><div>c0762cbf4baf7f9af97c051e7fcb8083</div></td></tr><tr><td style="font-weight:bold;vertical-align:top;">session_id</td><td style="vertical-align:top;">:</td><td><div>192.168.1.220-4cea3299-61fe-4a67-a038-21ff2a5ff1b8</div></td></tr><tr><td style="font-weight:bold;vertical-align:top;">session_id_name</td><td style="vertical-align:top;">:</td><td><div>session_id_urbtran</div></td></tr><tr><td style="font-weight:bold;vertical-align:top;">session_masterapp</td><td style="vertical-align:top;">:</td><td><div>urbtran</div></td></tr><tr><td style="font-weight:bold;vertical-align:top;">session_new</td><td style="vertical-align:top;">:</td><td><div>True</div></td></tr><tr><td style="font-weight:bold;vertical-align:top;">session_storage_type</td><td style="vertical-align:top;">:</td><td><div>file</div></td></tr><tr><td style="font-weight:bold;vertical-align:top;">status</td><td style="vertical-align:top;">:</td><td><div>200</div></td></tr><tr><td style="font-weight:bold;vertical-align:top;">subtitle</td><td style="vertical-align:top;">:</td><td><div></div></td></tr><tr><td style="font-weight:bold;vertical-align:top;">title</td><td style="vertical-align:top;">:</td><td><div>Urbtran</div></td></tr><tr><td style="font-weight:bold;vertical-align:top;">view</td><td style="vertical-align:top;">:</td><td><div>default/algo.html</div></td></tr></table></div>'
tRp146
sS'locals'
p147
(dp148
S'date1'
p149
S"['2016', '11', '29']"
p150
sS'email_'
p151
S"'agh@gmail.com'"
p152
sS'destination_'
p153
S"'Chennail'"
p154
sS'slot_'
p155
S"'8_00AM-9_00AM'"
p156
sS'name_'
p157
S"'foggy'"
p158
sS'number_'
p159
S"'6'"
p160
sS'slot_strip'
p161
S"'8_00AM'"
p162
sssS'traceback'
p163
S'Traceback (most recent call last):\n  File "/home/preethi/Downloads/web2py/gluon/restricted.py", line 227, in restricted\n    exec ccode in environment\n  File "/home/preethi/Downloads/web2py/applications/urbtran/controllers/default.py", line 293, in <module>\n  File "/home/preethi/Downloads/web2py/gluon/globals.py", line 417, in <lambda>\n    self._caller = lambda f: f()\n  File "/home/preethi/Downloads/web2py/applications/urbtran/controllers/default.py", line 226, in algo\n    date1 = datetime.date(date1[0], date1[1],date1[2])\nTypeError: an integer is required\n'
p164
s.